target datalayout = "e-m:e-p270:32:32-p271:32:32-p272:64:64-i64:64-i128:128-f80:128-n8:16:32:64-S128"
target triple = "x86_64-pc-linux-gnu"

%struct.H5C_class_t = type { i32, ptr, i32, i32, ptr, ptr, ptr, ptr, ptr, ptr, ptr, ptr, ptr, ptr }
%struct.H5O_t = type { %struct.H5C_cache_entry_t, i64, i64, i8, i64, i8, i32, i8, i8, i64, i64, i64, i64, i32, i32, i64, i64, ptr, i64, i64, i64, i64, ptr, i8, ptr }
%struct.H5C_cache_entry_t = type { ptr, i64, i64, ptr, i8, ptr, i8, i8, i8, i8, i32, i8, i8, i8, i8, i8, i32, ptr, i32, i32, i32, i32, i32, i8, i8, ptr, ptr, ptr, ptr, ptr, ptr, i8, i32, i8, i64, ptr, i64, i64, i32, i8, i32, i32, i8, ptr, ptr, ptr }
%struct.H5O_chunk_t = type { i64, i64, i64, ptr, ptr }
%struct.H5O_loc_t = type { ptr, i64, i8 }

@.str.4 = private unnamed_addr constant [100 x i8] c"generated/home/dtcxzyw/WorkSpace/Projects/compilers/llvm-opt-benchmark/bench/hdf5/hdf5/src/H5Oint.c\00", align 1
@H5E_OHDR_g = external global i64, align 8
@H5AC_OHDR = external constant [1 x %struct.H5C_class_t], align 16
@H5E_CANTUNPIN_g = external global i64, align 8
@H5AC_OHDR_CHK = external constant [1 x %struct.H5C_class_t], align 16
@H5E_CANTUNPROTECT_g = external global i64, align 8
@.str.47 = private unnamed_addr constant [32 x i8] c"unable to release object header\00", align 1
@__func__.H5O_unprotect = private unnamed_addr constant [14 x i8] c"H5O_unprotect\00", align 1
@.str.51 = private unnamed_addr constant [36 x i8] c"unable to unpin object header chunk\00", align 1
@.str.52 = private unnamed_addr constant [38 x i8] c"unable to expunge object header chunk\00", align 1

; Function Attrs: nounwind uwtable
define i32 @H5O_unprotect(ptr noundef %0, ptr noundef %1, i32 noundef %2) #0 {
  %4 = alloca ptr, align 8
  %5 = alloca ptr, align 8
  %6 = alloca i32, align 4
  %7 = alloca i32, align 4
  %8 = alloca i8, align 1
  %9 = alloca i32, align 4
  %10 = alloca i32, align 4
  store ptr %0, ptr %4, align 8
  store ptr %1, ptr %5, align 8
  store i32 %2, ptr %6, align 4
  store i32 0, ptr %7, align 4
  store i8 0, ptr %8, align 1
  %11 = load ptr, ptr %5, align 8
  %12 = getelementptr inbounds %struct.H5O_t, ptr %11, i32 0, i32 23
  %13 = load i8, ptr %12, align 8
  %14 = trunc i8 %13 to i1
  br i1 %14, label %15, label %79

15:                                               ; preds = %3
  %16 = load ptr, ptr %5, align 8
  %17 = getelementptr inbounds %struct.H5O_t, ptr %16, i32 0, i32 20
  %18 = load i64, ptr %17, align 8
  %19 = icmp ugt i64 %18, 1
  br i1 %19, label %20, label %79

20:                                               ; preds = %15
  store i32 1, ptr %9, align 4
  br label %21

21:                                               ; preds = %73, %20
  %22 = load i32, ptr %9, align 4
  %23 = zext i32 %22 to i64
  %24 = load ptr, ptr %5, align 8
  %25 = getelementptr inbounds %struct.H5O_t, ptr %24, i32 0, i32 20
  %26 = load i64, ptr %25, align 8
  %27 = icmp ult i64 %23, %26
  br i1 %27, label %28, label %76

28:                                               ; preds = %21
  %29 = load ptr, ptr %5, align 8
  %30 = getelementptr inbounds %struct.H5O_t, ptr %29, i32 0, i32 22
  %31 = load ptr, ptr %30, align 8
  %32 = load i32, ptr %9, align 4
  %33 = zext i32 %32 to i64
  %34 = getelementptr inbounds %struct.H5O_chunk_t, ptr %31, i64 %33
  %35 = getelementptr inbounds %struct.H5O_chunk_t, ptr %34, i32 0, i32 4
  %36 = load ptr, ptr %35, align 8
  %37 = icmp ne ptr null, %36
  br i1 %37, label %38, label %72

38:                                               ; preds = %28
  %39 = load ptr, ptr %5, align 8
  %40 = getelementptr inbounds %struct.H5O_t, ptr %39, i32 0, i32 22
  %41 = load ptr, ptr %40, align 8
  %42 = load i32, ptr %9, align 4
  %43 = zext i32 %42 to i64
  %44 = getelementptr inbounds %struct.H5O_chunk_t, ptr %41, i64 %43
  %45 = getelementptr inbounds %struct.H5O_chunk_t, ptr %44, i32 0, i32 4
  %46 = load ptr, ptr %45, align 8
  %47 = call i32 @H5AC_unpin_entry(ptr noundef %46)
  %48 = icmp slt i32 %47, 0
  br i1 %48, label %49, label %64

49:                                               ; preds = %38
  br label %50

50:                                               ; preds = %49
  br label %51

51:                                               ; preds = %50
  br label %52

52:                                               ; preds = %51
  %53 = load i64, ptr @H5E_OHDR_g, align 8
  %54 = load i64, ptr @H5E_CANTUNPIN_g, align 8
  %55 = call i32 (ptr, ptr, i32, i64, i64, ptr, ...) @H5E_printf_stack(ptr noundef @.str.4, ptr noundef @__func__.H5O_unprotect, i32 noundef 1234, i64 noundef %53, i64 noundef %54, ptr noundef @.str.51)
  br label %56

56:                                               ; preds = %52
  store i8 1, ptr %8, align 1
  %57 = load i8, ptr %8, align 1
  %58 = trunc i8 %57 to i1
  %59 = zext i1 %58 to i8
  store i8 %59, ptr %8, align 1
  br label %60

60:                                               ; preds = %56
  br label %61

61:                                               ; preds = %60
  store i32 -1, ptr %7, align 4
  br label %155

62:                                               ; No predecessors!
  br label %63

63:                                               ; preds = %62
  br label %64

64:                                               ; preds = %63, %38
  %65 = load ptr, ptr %5, align 8
  %66 = getelementptr inbounds %struct.H5O_t, ptr %65, i32 0, i32 22
  %67 = load ptr, ptr %66, align 8
  %68 = load i32, ptr %9, align 4
  %69 = zext i32 %68 to i64
  %70 = getelementptr inbounds %struct.H5O_chunk_t, ptr %67, i64 %69
  %71 = getelementptr inbounds %struct.H5O_chunk_t, ptr %70, i32 0, i32 4
  store ptr null, ptr %71, align 8
  br label %72

72:                                               ; preds = %64, %28
  br label %73

73:                                               ; preds = %72
  %74 = load i32, ptr %9, align 4
  %75 = add i32 %74, 1
  store i32 %75, ptr %9, align 4
  br label %21

76:                                               ; preds = %21
  %77 = load ptr, ptr %5, align 8
  %78 = getelementptr inbounds %struct.H5O_t, ptr %77, i32 0, i32 23
  store i8 0, ptr %78, align 8
  br label %79

79:                                               ; preds = %76, %15, %3
  %80 = load i32, ptr %6, align 4
  %81 = and i32 %80, 1
  %82 = icmp ne i32 %81, 0
  br i1 %82, label %83, label %125

83:                                               ; preds = %79
  store i32 1, ptr %10, align 4
  br label %84

84:                                               ; preds = %121, %83
  %85 = load i32, ptr %10, align 4
  %86 = zext i32 %85 to i64
  %87 = load ptr, ptr %5, align 8
  %88 = getelementptr inbounds %struct.H5O_t, ptr %87, i32 0, i32 20
  %89 = load i64, ptr %88, align 8
  %90 = icmp ult i64 %86, %89
  br i1 %90, label %91, label %124

91:                                               ; preds = %84
  %92 = load ptr, ptr %4, align 8
  %93 = getelementptr inbounds %struct.H5O_loc_t, ptr %92, i32 0, i32 0
  %94 = load ptr, ptr %93, align 8
  %95 = load ptr, ptr %5, align 8
  %96 = getelementptr inbounds %struct.H5O_t, ptr %95, i32 0, i32 22
  %97 = load ptr, ptr %96, align 8
  %98 = load i32, ptr %10, align 4
  %99 = zext i32 %98 to i64
  %100 = getelementptr inbounds %struct.H5O_chunk_t, ptr %97, i64 %99
  %101 = getelementptr inbounds %struct.H5O_chunk_t, ptr %100, i32 0, i32 0
  %102 = load i64, ptr %101, align 8
  %103 = call i32 @H5AC_expunge_entry(ptr noundef %94, ptr noundef @H5AC_OHDR_CHK, i64 noundef %102, i32 noundef 0)
  %104 = icmp slt i32 %103, 0
  br i1 %104, label %105, label %120

105:                                              ; preds = %91
  br label %106

106:                                              ; preds = %105
  br label %107

107:                                              ; preds = %106
  br label %108

108:                                              ; preds = %107
  %109 = load i64, ptr @H5E_OHDR_g, align 8
  %110 = load i64, ptr @H5E_CANTUNPIN_g, align 8
  %111 = call i32 (ptr, ptr, i32, i64, i64, ptr, ...) @H5E_printf_stack(ptr noundef @.str.4, ptr noundef @__func__.H5O_unprotect, i32 noundef 1251, i64 noundef %109, i64 noundef %110, ptr noundef @.str.52)
  br label %112

112:                                              ; preds = %108
  store i8 1, ptr %8, align 1
  %113 = load i8, ptr %8, align 1
  %114 = trunc i8 %113 to i1
  %115 = zext i1 %114 to i8
  store i8 %115, ptr %8, align 1
  br label %116

116:                                              ; preds = %112
  br label %117

117:                                              ; preds = %116
  store i32 -1, ptr %7, align 4
  br label %155

118:                                              ; No predecessors!
  br label %119

119:                                              ; preds = %118
  br label %120

120:                                              ; preds = %119, %91
  br label %121

121:                                              ; preds = %120
  %122 = load i32, ptr %10, align 4
  %123 = add i32 %122, 1
  store i32 %123, ptr %10, align 4
  br label %84

124:                                              ; preds = %84
  br label %125

125:                                              ; preds = %124, %79
  %126 = load ptr, ptr %4, align 8
  %127 = getelementptr inbounds %struct.H5O_loc_t, ptr %126, i32 0, i32 0
  %128 = load ptr, ptr %127, align 8
  %129 = load ptr, ptr %5, align 8
  %130 = getelementptr inbounds %struct.H5O_t, ptr %129, i32 0, i32 22
  %131 = load ptr, ptr %130, align 8
  %132 = getelementptr inbounds %struct.H5O_chunk_t, ptr %131, i64 0
  %133 = getelementptr inbounds %struct.H5O_chunk_t, ptr %132, i32 0, i32 0
  %134 = load i64, ptr %133, align 8
  %135 = load ptr, ptr %5, align 8
  %136 = load i32, ptr %6, align 4
  %137 = call i32 @H5AC_unprotect(ptr noundef %128, ptr noundef @H5AC_OHDR, i64 noundef %134, ptr noundef %135, i32 noundef %136)
  %138 = icmp slt i32 %137, 0
  br i1 %138, label %139, label %154

139:                                              ; preds = %125
  br label %140

140:                                              ; preds = %139
  br label %141

141:                                              ; preds = %140
  br label %142

142:                                              ; preds = %141
  %143 = load i64, ptr @H5E_OHDR_g, align 8
  %144 = load i64, ptr @H5E_CANTUNPROTECT_g, align 8
  %145 = call i32 (ptr, ptr, i32, i64, i64, ptr, ...) @H5E_printf_stack(ptr noundef @.str.4, ptr noundef @__func__.H5O_unprotect, i32 noundef 1256, i64 noundef %143, i64 noundef %144, ptr noundef @.str.47)
  br label %146

146:                                              ; preds = %142
  store i8 1, ptr %8, align 1
  %147 = load i8, ptr %8, align 1
  %148 = trunc i8 %147 to i1
  %149 = zext i1 %148 to i8
  store i8 %149, ptr %8, align 1
  br label %150

150:                                              ; preds = %146
  br label %151

151:                                              ; preds = %150
  store i32 -1, ptr %7, align 4
  br label %155

152:                                              ; No predecessors!
  br label %153

153:                                              ; preds = %152
  br label %154

154:                                              ; preds = %153, %125
  br label %155

155:                                              ; preds = %154, %151, %117, %61
  %156 = load i32, ptr %7, align 4
  ret i32 %156
}