; Function Attrs: nounwind uwtable
define range(i32 -1, 1) i32 @H5O_unprotect(ptr nocapture noundef readonly %0, ptr noundef %1, i32 noundef %2) local_unnamed_addr #1 {
  %4 = getelementptr inbounds i8, ptr %1, i64 400
  %5 = load i8, ptr %4, align 8
  %6 = trunc i8 %5 to i1
  br i1 %6, label %7, label %33

7:                                                ; preds = %3
  %8 = getelementptr inbounds i8, ptr %1, i64 376
  %9 = load i64, ptr %8, align 8
  %10 = icmp ugt i64 %9, 1
  br i1 %10, label %.lr.ph, label %33

.lr.ph:                                           ; preds = %7
  %11 = getelementptr inbounds i8, ptr %1, i64 392
  br label %12

12:                                               ; preds = %.lr.ph, %28
  %13 = phi i64 [ %9, %.lr.ph ], [ %29, %28 ]
  %14 = phi i64 [ 1, %.lr.ph ], [ %31, %28 ]
  %.02633 = phi i32 [ 1, %.lr.ph ], [ %30, %28 ]
  %15 = load ptr, ptr %11, align 8
  %16 = getelementptr inbounds %struct.H5O_chunk_t, ptr %15, i64 %14, i32 4
  %17 = load ptr, ptr %16, align 8
  %.not31 = icmp eq ptr %17, null
  br i1 %.not31, label %28, label %18

18:                                               ; preds = %12
  %19 = tail call i32 @H5AC_unpin_entry(ptr noundef nonnull %17) #11
  %20 = icmp slt i32 %19, 0
  br i1 %20, label %21, label %25

21:                                               ; preds = %18
  %22 = load i64, ptr @H5E_OHDR_g, align 8
  %23 = load i64, ptr @H5E_CANTUNPIN_g, align 8
  %24 = tail call i32 (ptr, ptr, i32, i64, i64, ptr, ...) @H5E_printf_stack(ptr noundef nonnull @.str.4, ptr noundef nonnull @__func__.H5O_unprotect, i32 noundef 1234, i64 noundef %22, i64 noundef %23, ptr noundef nonnull @.str.51) #11
  br label %66

25:                                               ; preds = %18
  %26 = load ptr, ptr %11, align 8
  %27 = getelementptr inbounds %struct.H5O_chunk_t, ptr %26, i64 %14, i32 4
  store ptr null, ptr %27, align 8
  %.pre = load i64, ptr %8, align 8
  br label %28

28:                                               ; preds = %12, %25
  %29 = phi i64 [ %13, %12 ], [ %.pre, %25 ]
  %30 = add i32 %.02633, 1
  %31 = zext i32 %30 to i64
  %32 = icmp ugt i64 %29, %31
  br i1 %32, label %12, label %._crit_edge

._crit_edge:                                      ; preds = %28
  store i8 0, ptr %4, align 8
  br label %33

33:                                               ; preds = %._crit_edge, %7, %3
  %34 = and i32 %2, 1
  %.not = icmp eq i32 %34, 0
  br i1 %.not, label %.loopexit, label %.preheader

.preheader:                                       ; preds = %33
  %35 = getelementptr inbounds i8, ptr %1, i64 376
  %36 = load i64, ptr %35, align 8
  %37 = icmp ugt i64 %36, 1
  br i1 %37, label %.lr.ph35, label %.loopexit

.lr.ph35:                                         ; preds = %.preheader
  %38 = getelementptr inbounds i8, ptr %1, i64 392
  br label %44

39:                                               ; preds = %44
  %40 = add i32 %.034, 1
  %41 = zext i32 %40 to i64
  %42 = load i64, ptr %35, align 8
  %43 = icmp ugt i64 %42, %41
  br i1 %43, label %44, label %.loopexit

44:                                               ; preds = %.lr.ph35, %39
  %45 = phi i64 [ 1, %.lr.ph35 ], [ %41, %39 ]
  %.034 = phi i32 [ 1, %.lr.ph35 ], [ %40, %39 ]
  %46 = load ptr, ptr %0, align 8
  %47 = load ptr, ptr %38, align 8
  %48 = getelementptr inbounds %struct.H5O_chunk_t, ptr %47, i64 %45
  %49 = load i64, ptr %48, align 8
  %50 = tail call i32 @H5AC_expunge_entry(ptr noundef %46, ptr noundef nonnull @H5AC_OHDR_CHK, i64 noundef %49, i32 noundef 0) #11
  %51 = icmp slt i32 %50, 0
  br i1 %51, label %52, label %39

52:                                               ; preds = %44
  %53 = load i64, ptr @H5E_OHDR_g, align 8
  %54 = load i64, ptr @H5E_CANTUNPIN_g, align 8
  %55 = tail call i32 (ptr, ptr, i32, i64, i64, ptr, ...) @H5E_printf_stack(ptr noundef nonnull @.str.4, ptr noundef nonnull @__func__.H5O_unprotect, i32 noundef 1251, i64 noundef %53, i64 noundef %54, ptr noundef nonnull @.str.52) #11
  br label %66

.loopexit:                                        ; preds = %39, %.preheader, %33
  %56 = load ptr, ptr %0, align 8
  %57 = getelementptr inbounds i8, ptr %1, i64 392
  %58 = load ptr, ptr %57, align 8
  %59 = load i64, ptr %58, align 8
  %60 = tail call i32 @H5AC_unprotect(ptr noundef %56, ptr noundef nonnull @H5AC_OHDR, i64 noundef %59, ptr noundef nonnull %1, i32 noundef %2) #11
  %61 = icmp slt i32 %60, 0
  br i1 %61, label %62, label %66

62:                                               ; preds = %.loopexit
  %63 = load i64, ptr @H5E_OHDR_g, align 8
  %64 = load i64, ptr @H5E_CANTUNPROTECT_g, align 8
  %65 = tail call i32 (ptr, ptr, i32, i64, i64, ptr, ...) @H5E_printf_stack(ptr noundef nonnull @.str.4, ptr noundef nonnull @__func__.H5O_unprotect, i32 noundef 1256, i64 noundef %63, i64 noundef %64, ptr noundef nonnull @.str.47) #11
  br label %66

66:                                               ; preds = %.loopexit, %62, %52, %21
  %.027 = phi i32 [ -1, %21 ], [ -1, %52 ], [ -1, %62 ], [ 0, %.loopexit ]
  ret i32 %.027
}